; Function Attrs: mustprogress uwtable
define void @_ZN7rocksdb14ThreadLocalPtr6ScrapeEPNS_10autovectorIPvLm8EEES2_(ptr noundef nonnull readonly align 4 captures(none) dereferenceable(4) %0, ptr noundef %1, ptr noundef %2) local_unnamed_addr #0 align 2 personality ptr @__gxx_personality_v0 {
  %4 = load atomic i8, ptr @_ZGVZN7rocksdb14ThreadLocalPtr8InstanceEvE4inst acquire, align 8
  %5 = icmp eq i8 %4, 0
  br i1 %5, label %6, label %_ZN7rocksdb14ThreadLocalPtr8InstanceEv.exit, !prof !4

6:                                                ; preds = %3
  %7 = tail call i32 @__cxa_guard_acquire(ptr nonnull @_ZGVZN7rocksdb14ThreadLocalPtr8InstanceEvE4inst) #19
  %.not.i = icmp eq i32 %7, 0
  br i1 %.not.i, label %_ZN7rocksdb14ThreadLocalPtr8InstanceEv.exit, label %8

8:                                                ; preds = %6
  %9 = invoke noalias noundef nonnull dereferenceable(232) ptr @_Znwm(i64 noundef 232) #20
          to label %10 unwind label %12

10:                                               ; preds = %8
  invoke void @_ZN7rocksdb14ThreadLocalPtr10StaticMetaC1Ev(ptr noundef nonnull align 8 dereferenceable(228) %9)
          to label %11 unwind label %14

11:                                               ; preds = %10
  store ptr %9, ptr @_ZZN7rocksdb14ThreadLocalPtr8InstanceEvE4inst, align 8, !tbaa !5
  tail call void @__cxa_guard_release(ptr nonnull @_ZGVZN7rocksdb14ThreadLocalPtr8InstanceEvE4inst) #19
  br label %_ZN7rocksdb14ThreadLocalPtr8InstanceEv.exit

12:                                               ; preds = %8
  %13 = landingpad { ptr, i32 }
          cleanup
  br label %16

14:                                               ; preds = %10
  %15 = landingpad { ptr, i32 }
          cleanup
  tail call void @_ZdlPvm(ptr noundef nonnull %9, i64 noundef 232) #21
  br label %16

16:                                               ; preds = %14, %12
  %.pn.i = phi { ptr, i32 } [ %15, %14 ], [ %13, %12 ]
  tail call void @__cxa_guard_abort(ptr nonnull @_ZGVZN7rocksdb14ThreadLocalPtr8InstanceEvE4inst) #19
  resume { ptr, i32 } %.pn.i

_ZN7rocksdb14ThreadLocalPtr8InstanceEv.exit:      ; preds = %3, %6, %11
  %17 = load ptr, ptr @_ZZN7rocksdb14ThreadLocalPtr8InstanceEvE4inst, align 8, !tbaa !5
  %18 = load i32, ptr %0, align 4, !tbaa !94
  tail call void @_ZN7rocksdb14ThreadLocalPtr10StaticMeta6ScrapeEjPNS_10autovectorIPvLm8EEES3_(ptr noundef nonnull align 8 dereferenceable(228) %17, i32 noundef %18, ptr noundef %1, ptr noundef %2)
  ret void
}